target datalayout = "e-m:e-p270:32:32-p271:32:32-p272:64:64-i64:64-i128:128-f80:128-n8:16:32:64-S128"
target triple = "x86_64-pc-linux-gnu"

%struct.anon = type { [8 x [8 x ptr]], [8 x [8 x ptr]], ptr, ptr, ptr, ptr, ptr, double, double, double, double, double, double, i64, i64, i64, i64 }
%struct._generic_N_Vector = type { ptr, ptr, ptr }
%struct._N_VectorContent_Serial = type { i64, i32, ptr }

; Function Attrs: nounwind uwtable
define internal double @DotProd(i64 noundef %0, ptr noundef %1, ptr noundef %2) #0 {
  %4 = alloca i64, align 8
  %5 = alloca ptr, align 8
  %6 = alloca ptr, align 8
  %7 = alloca i64, align 8
  %8 = alloca ptr, align 8
  %9 = alloca ptr, align 8
  %10 = alloca double, align 8
  store i64 %0, ptr %4, align 8, !tbaa !46
  store ptr %1, ptr %5, align 8, !tbaa !47
  store ptr %2, ptr %6, align 8, !tbaa !47
  call void @llvm.lifetime.start.p0(i64 8, ptr %7) #6
  call void @llvm.lifetime.start.p0(i64 8, ptr %8) #6
  call void @llvm.lifetime.start.p0(i64 8, ptr %9) #6
  call void @llvm.lifetime.start.p0(i64 8, ptr %10) #6
  store double 0.000000e+00, ptr %10, align 8, !tbaa !22
  %11 = load ptr, ptr %5, align 8, !tbaa !47
  store ptr %11, ptr %8, align 8, !tbaa !47
  %12 = load ptr, ptr %6, align 8, !tbaa !47
  store ptr %12, ptr %9, align 8, !tbaa !47
  store i64 0, ptr %7, align 8, !tbaa !46
  br label %13

13:                                               ; preds = %26, %3
  %14 = load i64, ptr %7, align 8, !tbaa !46
  %15 = load i64, ptr %4, align 8, !tbaa !46
  %16 = icmp slt i64 %14, %15
  br i1 %16, label %17, label %29

17:                                               ; preds = %13
  %18 = load ptr, ptr %8, align 8, !tbaa !47
  %19 = getelementptr inbounds nuw double, ptr %18, i32 1
  store ptr %19, ptr %8, align 8, !tbaa !47
  %20 = load double, ptr %18, align 8, !tbaa !22
  %21 = load ptr, ptr %9, align 8, !tbaa !47
  %22 = getelementptr inbounds nuw double, ptr %21, i32 1
  store ptr %22, ptr %9, align 8, !tbaa !47
  %23 = load double, ptr %21, align 8, !tbaa !22
  %24 = load double, ptr %10, align 8, !tbaa !22
  %25 = call double @llvm.fmuladd.f64(double %20, double %23, double %24)
  store double %25, ptr %10, align 8, !tbaa !22
  br label %26

26:                                               ; preds = %17
  %27 = load i64, ptr %7, align 8, !tbaa !46
  %28 = add nsw i64 %27, 1
  store i64 %28, ptr %7, align 8, !tbaa !46
  br label %13

29:                                               ; preds = %13
  %30 = load double, ptr %10, align 8, !tbaa !22
  call void @llvm.lifetime.end.p0(i64 8, ptr %10) #6
  call void @llvm.lifetime.end.p0(i64 8, ptr %9) #6
  call void @llvm.lifetime.end.p0(i64 8, ptr %8) #6
  call void @llvm.lifetime.end.p0(i64 8, ptr %7) #6
  ret double %30
}

; Function Attrs: nounwind uwtable
define internal void @WebRate(double noundef %0, double noundef %1, ptr noundef %2, ptr noundef %3, ptr noundef %4) #0 {
  %6 = alloca double, align 8
  %7 = alloca double, align 8
  %8 = alloca ptr, align 8
  %9 = alloca ptr, align 8
  %10 = alloca ptr, align 8
  %11 = alloca i64, align 8
  %12 = alloca double, align 8
  %13 = alloca ptr, align 8
  store double %0, ptr %6, align 8, !tbaa !22
  store double %1, ptr %7, align 8, !tbaa !22
  store ptr %2, ptr %8, align 8, !tbaa !47
  store ptr %3, ptr %9, align 8, !tbaa !47
  store ptr %4, ptr %10, align 8, !tbaa !9
  call void @llvm.lifetime.start.p0(i64 8, ptr %11) #6
  call void @llvm.lifetime.start.p0(i64 8, ptr %12) #6
  call void @llvm.lifetime.start.p0(i64 8, ptr %13) #6
  %14 = load ptr, ptr %10, align 8, !tbaa !9
  store ptr %14, ptr %13, align 8, !tbaa !9
  store i64 0, ptr %11, align 8, !tbaa !46
  br label %15

15:                                               ; preds = %30, %5
  %16 = load i64, ptr %11, align 8, !tbaa !46
  %17 = icmp slt i64 %16, 6
  br i1 %17, label %18, label %33

18:                                               ; preds = %15
  %19 = load ptr, ptr %8, align 8, !tbaa !47
  %20 = load ptr, ptr %13, align 8, !tbaa !9
  %21 = getelementptr inbounds nuw %struct.anon, ptr %20, i32 0, i32 2
  %22 = load ptr, ptr %21, align 8, !tbaa !32
  %23 = load i64, ptr %11, align 8, !tbaa !46
  %24 = getelementptr inbounds ptr, ptr %22, i64 %23
  %25 = load ptr, ptr %24, align 8, !tbaa !47
  %26 = call double @DotProd(i64 noundef 6, ptr noundef %19, ptr noundef %25)
  %27 = load ptr, ptr %9, align 8, !tbaa !47
  %28 = load i64, ptr %11, align 8, !tbaa !46
  %29 = getelementptr inbounds double, ptr %27, i64 %28
  store double %26, ptr %29, align 8, !tbaa !22
  br label %30

30:                                               ; preds = %18
  %31 = load i64, ptr %11, align 8, !tbaa !46
  %32 = add nsw i64 %31, 1
  store i64 %32, ptr %11, align 8, !tbaa !46
  br label %15

33:                                               ; preds = %15
  %34 = load double, ptr %6, align 8, !tbaa !22
  %35 = fmul double 1.000000e+00, %34
  %36 = load double, ptr %7, align 8, !tbaa !22
  %37 = call double @llvm.fmuladd.f64(double %35, double %36, double 1.000000e+00)
  store double %37, ptr %12, align 8, !tbaa !22
  store i64 0, ptr %11, align 8, !tbaa !46
  br label %38

38:                                               ; preds = %62, %33
  %39 = load i64, ptr %11, align 8, !tbaa !46
  %40 = icmp slt i64 %39, 6
  br i1 %40, label %41, label %65

41:                                               ; preds = %38
  %42 = load ptr, ptr %8, align 8, !tbaa !47
  %43 = load i64, ptr %11, align 8, !tbaa !46
  %44 = getelementptr inbounds double, ptr %42, i64 %43
  %45 = load double, ptr %44, align 8, !tbaa !22
  %46 = load ptr, ptr %13, align 8, !tbaa !9
  %47 = getelementptr inbounds nuw %struct.anon, ptr %46, i32 0, i32 3
  %48 = load ptr, ptr %47, align 8, !tbaa !33
  %49 = load i64, ptr %11, align 8, !tbaa !46
  %50 = getelementptr inbounds double, ptr %48, i64 %49
  %51 = load double, ptr %50, align 8, !tbaa !22
  %52 = load double, ptr %12, align 8, !tbaa !22
  %53 = load ptr, ptr %9, align 8, !tbaa !47
  %54 = load i64, ptr %11, align 8, !tbaa !46
  %55 = getelementptr inbounds double, ptr %53, i64 %54
  %56 = load double, ptr %55, align 8, !tbaa !22
  %57 = call double @llvm.fmuladd.f64(double %51, double %52, double %56)
  %58 = fmul double %45, %57
  %59 = load ptr, ptr %9, align 8, !tbaa !47
  %60 = load i64, ptr %11, align 8, !tbaa !46
  %61 = getelementptr inbounds double, ptr %59, i64 %60
  store double %58, ptr %61, align 8, !tbaa !22
  br label %62

62:                                               ; preds = %41
  %63 = load i64, ptr %11, align 8, !tbaa !46
  %64 = add nsw i64 %63, 1
  store i64 %64, ptr %11, align 8, !tbaa !46
  br label %38

65:                                               ; preds = %38
  call void @llvm.lifetime.end.p0(i64 8, ptr %13) #6
  call void @llvm.lifetime.end.p0(i64 8, ptr %12) #6
  call void @llvm.lifetime.end.p0(i64 8, ptr %11) #6
  ret void
}

; Function Attrs: nounwind uwtable
define internal i32 @func(ptr noundef %0, ptr noundef %1, ptr noundef %2) #0 {
  %4 = alloca ptr, align 8
  %5 = alloca ptr, align 8
  %6 = alloca ptr, align 8
  %7 = alloca double, align 8
  %8 = alloca double, align 8
  %9 = alloca double, align 8
  %10 = alloca double, align 8
  %11 = alloca ptr, align 8
  %12 = alloca ptr, align 8
  %13 = alloca ptr, align 8
  %14 = alloca double, align 8
  %15 = alloca double, align 8
  %16 = alloca double, align 8
  %17 = alloca double, align 8
  %18 = alloca i64, align 8
  %19 = alloca i64, align 8
  %20 = alloca i64, align 8
  %21 = alloca i64, align 8
  %22 = alloca i64, align 8
  %23 = alloca i64, align 8
  %24 = alloca i64, align 8
  %25 = alloca ptr, align 8
  store ptr %0, ptr %4, align 8, !tbaa !4
  store ptr %1, ptr %5, align 8, !tbaa !4
  store ptr %2, ptr %6, align 8, !tbaa !9
  call void @llvm.lifetime.start.p0(i64 8, ptr %7) #6
  call void @llvm.lifetime.start.p0(i64 8, ptr %8) #6
  call void @llvm.lifetime.start.p0(i64 8, ptr %9) #6
  call void @llvm.lifetime.start.p0(i64 8, ptr %10) #6
  call void @llvm.lifetime.start.p0(i64 8, ptr %11) #6
  call void @llvm.lifetime.start.p0(i64 8, ptr %12) #6
  call void @llvm.lifetime.start.p0(i64 8, ptr %13) #6
  call void @llvm.lifetime.start.p0(i64 8, ptr %14) #6
  call void @llvm.lifetime.start.p0(i64 8, ptr %15) #6
  call void @llvm.lifetime.start.p0(i64 8, ptr %16) #6
  call void @llvm.lifetime.start.p0(i64 8, ptr %17) #6
  call void @llvm.lifetime.start.p0(i64 8, ptr %18) #6
  call void @llvm.lifetime.start.p0(i64 8, ptr %19) #6
  call void @llvm.lifetime.start.p0(i64 8, ptr %20) #6
  call void @llvm.lifetime.start.p0(i64 8, ptr %21) #6
  call void @llvm.lifetime.start.p0(i64 8, ptr %22) #6
  call void @llvm.lifetime.start.p0(i64 8, ptr %23) #6
  call void @llvm.lifetime.start.p0(i64 8, ptr %24) #6
  call void @llvm.lifetime.start.p0(i64 8, ptr %25) #6
  %26 = load ptr, ptr %6, align 8, !tbaa !9
  store ptr %26, ptr %25, align 8, !tbaa !9
  %27 = load ptr, ptr %25, align 8, !tbaa !9
  %28 = getelementptr inbounds nuw %struct.anon, ptr %27, i32 0, i32 9
  %29 = load double, ptr %28, align 8, !tbaa !42
  store double %29, ptr %9, align 8, !tbaa !22
  %30 = load ptr, ptr %25, align 8, !tbaa !9
  %31 = getelementptr inbounds nuw %struct.anon, ptr %30, i32 0, i32 10
  %32 = load double, ptr %31, align 8, !tbaa !43
  store double %32, ptr %10, align 8, !tbaa !22
  store i64 0, ptr %19, align 8, !tbaa !46
  br label %33

33:                                               ; preds = %191, %3
  %34 = load i64, ptr %19, align 8, !tbaa !46
  %35 = icmp slt i64 %34, 8
  br i1 %35, label %36, label %194

36:                                               ; preds = %33
  %37 = load double, ptr %10, align 8, !tbaa !22
  %38 = load i64, ptr %19, align 8, !tbaa !46
  %39 = sitofp i64 %38 to double
  %40 = fmul double %37, %39
  store double %40, ptr %8, align 8, !tbaa !22
  %41 = load i64, ptr %19, align 8, !tbaa !46
  %42 = icmp ne i64 %41, 0
  %43 = select i1 %42, i32 48, i32 -48
  %44 = sext i32 %43 to i64
  store i64 %44, ptr %22, align 8, !tbaa !46
  %45 = load i64, ptr %19, align 8, !tbaa !46
  %46 = icmp ne i64 %45, 7
  %47 = select i1 %46, i32 48, i32 -48
  %48 = sext i32 %47 to i64
  store i64 %48, ptr %21, align 8, !tbaa !46
  store i64 0, ptr %18, align 8, !tbaa !46
  br label %49

49:                                               ; preds = %187, %36
  %50 = load i64, ptr %18, align 8, !tbaa !46
  %51 = icmp slt i64 %50, 8
  br i1 %51, label %52, label %190

52:                                               ; preds = %49
  %53 = load double, ptr %9, align 8, !tbaa !22
  %54 = load i64, ptr %18, align 8, !tbaa !46
  %55 = sitofp i64 %54 to double
  %56 = fmul double %53, %55
  store double %56, ptr %7, align 8, !tbaa !22
  %57 = load i64, ptr %18, align 8, !tbaa !46
  %58 = icmp ne i64 %57, 0
  %59 = select i1 %58, i32 6, i32 -6
  %60 = sext i32 %59 to i64
  store i64 %60, ptr %24, align 8, !tbaa !46
  %61 = load i64, ptr %18, align 8, !tbaa !46
  %62 = icmp ne i64 %61, 7
  %63 = select i1 %62, i32 6, i32 -6
  %64 = sext i32 %63 to i64
  store i64 %64, ptr %23, align 8, !tbaa !46
  %65 = load ptr, ptr %4, align 8, !tbaa !4
  %66 = getelementptr inbounds nuw %struct._generic_N_Vector, ptr %65, i32 0, i32 0
  %67 = load ptr, ptr %66, align 8, !tbaa !48
  %68 = getelementptr inbounds nuw %struct._N_VectorContent_Serial, ptr %67, i32 0, i32 2
  %69 = load ptr, ptr %68, align 8, !tbaa !51
  %70 = load i64, ptr %18, align 8, !tbaa !46
  %71 = mul nsw i64 %70, 6
  %72 = load i64, ptr %19, align 8, !tbaa !46
  %73 = mul nsw i64 %72, 48
  %74 = add nsw i64 %71, %73
  %75 = getelementptr inbounds double, ptr %69, i64 %74
  store ptr %75, ptr %11, align 8, !tbaa !47
  %76 = load ptr, ptr %25, align 8, !tbaa !9
  %77 = getelementptr inbounds nuw %struct.anon, ptr %76, i32 0, i32 4
  %78 = load ptr, ptr %77, align 8, !tbaa !16
  %79 = getelementptr inbounds nuw %struct._generic_N_Vector, ptr %78, i32 0, i32 0
  %80 = load ptr, ptr %79, align 8, !tbaa !48
  %81 = getelementptr inbounds nuw %struct._N_VectorContent_Serial, ptr %80, i32 0, i32 2
  %82 = load ptr, ptr %81, align 8, !tbaa !51
  %83 = load i64, ptr %18, align 8, !tbaa !46
  %84 = mul nsw i64 %83, 6
  %85 = load i64, ptr %19, align 8, !tbaa !46
  %86 = mul nsw i64 %85, 48
  %87 = add nsw i64 %84, %86
  %88 = getelementptr inbounds double, ptr %82, i64 %87
  store ptr %88, ptr %12, align 8, !tbaa !47
  %89 = load ptr, ptr %5, align 8, !tbaa !4
  %90 = getelementptr inbounds nuw %struct._generic_N_Vector, ptr %89, i32 0, i32 0
  %91 = load ptr, ptr %90, align 8, !tbaa !48
  %92 = getelementptr inbounds nuw %struct._N_VectorContent_Serial, ptr %91, i32 0, i32 2
  %93 = load ptr, ptr %92, align 8, !tbaa !51
  %94 = load i64, ptr %18, align 8, !tbaa !46
  %95 = mul nsw i64 %94, 6
  %96 = load i64, ptr %19, align 8, !tbaa !46
  %97 = mul nsw i64 %96, 48
  %98 = add nsw i64 %95, %97
  %99 = getelementptr inbounds double, ptr %93, i64 %98
  store ptr %99, ptr %13, align 8, !tbaa !47
  %100 = load double, ptr %7, align 8, !tbaa !22
  %101 = load double, ptr %8, align 8, !tbaa !22
  %102 = load ptr, ptr %11, align 8, !tbaa !47
  %103 = load ptr, ptr %12, align 8, !tbaa !47
  %104 = load ptr, ptr %6, align 8, !tbaa !9
  call void @WebRate(double noundef %100, double noundef %101, ptr noundef %102, ptr noundef %103, ptr noundef %104)
  store i64 0, ptr %20, align 8, !tbaa !46
  br label %105

105:                                              ; preds = %183, %52
  %106 = load i64, ptr %20, align 8, !tbaa !46
  %107 = icmp slt i64 %106, 6
  br i1 %107, label %108, label %186

108:                                              ; preds = %105
  %109 = load ptr, ptr %11, align 8, !tbaa !47
  %110 = load i64, ptr %20, align 8, !tbaa !46
  %111 = getelementptr inbounds double, ptr %109, i64 %110
  %112 = load double, ptr %111, align 8, !tbaa !22
  %113 = load ptr, ptr %11, align 8, !tbaa !47
  %114 = load i64, ptr %22, align 8, !tbaa !46
  %115 = sub i64 0, %114
  %116 = getelementptr inbounds double, ptr %113, i64 %115
  %117 = load i64, ptr %20, align 8, !tbaa !46
  %118 = getelementptr inbounds double, ptr %116, i64 %117
  %119 = load double, ptr %118, align 8, !tbaa !22
  %120 = fsub double %112, %119
  store double %120, ptr %14, align 8, !tbaa !22
  %121 = load ptr, ptr %11, align 8, !tbaa !47
  %122 = load i64, ptr %21, align 8, !tbaa !46
  %123 = getelementptr inbounds double, ptr %121, i64 %122
  %124 = load i64, ptr %20, align 8, !tbaa !46
  %125 = getelementptr inbounds double, ptr %123, i64 %124
  %126 = load double, ptr %125, align 8, !tbaa !22
  %127 = load ptr, ptr %11, align 8, !tbaa !47
  %128 = load i64, ptr %20, align 8, !tbaa !46
  %129 = getelementptr inbounds double, ptr %127, i64 %128
  %130 = load double, ptr %129, align 8, !tbaa !22
  %131 = fsub double %126, %130
  store double %131, ptr %15, align 8, !tbaa !22
  %132 = load ptr, ptr %11, align 8, !tbaa !47
  %133 = load i64, ptr %20, align 8, !tbaa !46
  %134 = getelementptr inbounds double, ptr %132, i64 %133
  %135 = load double, ptr %134, align 8, !tbaa !22
  %136 = load ptr, ptr %11, align 8, !tbaa !47
  %137 = load i64, ptr %24, align 8, !tbaa !46
  %138 = sub i64 0, %137
  %139 = getelementptr inbounds double, ptr %136, i64 %138
  %140 = load i64, ptr %20, align 8, !tbaa !46
  %141 = getelementptr inbounds double, ptr %139, i64 %140
  %142 = load double, ptr %141, align 8, !tbaa !22
  %143 = fsub double %135, %142
  store double %143, ptr %16, align 8, !tbaa !22
  %144 = load ptr, ptr %11, align 8, !tbaa !47
  %145 = load i64, ptr %23, align 8, !tbaa !46
  %146 = getelementptr inbounds double, ptr %144, i64 %145
  %147 = load i64, ptr %20, align 8, !tbaa !46
  %148 = getelementptr inbounds double, ptr %146, i64 %147
  %149 = load double, ptr %148, align 8, !tbaa !22
  %150 = load ptr, ptr %11, align 8, !tbaa !47
  %151 = load i64, ptr %20, align 8, !tbaa !46
  %152 = getelementptr inbounds double, ptr %150, i64 %151
  %153 = load double, ptr %152, align 8, !tbaa !22
  %154 = fsub double %149, %153
  store double %154, ptr %17, align 8, !tbaa !22
  %155 = load ptr, ptr %25, align 8, !tbaa !9
  %156 = getelementptr inbounds nuw %struct.anon, ptr %155, i32 0, i32 6
  %157 = load ptr, ptr %156, align 8, !tbaa !35
  %158 = load i64, ptr %20, align 8, !tbaa !46
  %159 = getelementptr inbounds double, ptr %157, i64 %158
  %160 = load double, ptr %159, align 8, !tbaa !22
  %161 = load double, ptr %15, align 8, !tbaa !22
  %162 = load double, ptr %14, align 8, !tbaa !22
  %163 = fsub double %161, %162
  %164 = load ptr, ptr %25, align 8, !tbaa !9
  %165 = getelementptr inbounds nuw %struct.anon, ptr %164, i32 0, i32 5
  %166 = load ptr, ptr %165, align 8, !tbaa !34
  %167 = load i64, ptr %20, align 8, !tbaa !46
  %168 = getelementptr inbounds double, ptr %166, i64 %167
  %169 = load double, ptr %168, align 8, !tbaa !22
  %170 = load double, ptr %17, align 8, !tbaa !22
  %171 = load double, ptr %16, align 8, !tbaa !22
  %172 = fsub double %170, %171
  %173 = fmul double %169, %172
  %174 = call double @llvm.fmuladd.f64(double %160, double %163, double %173)
  %175 = load ptr, ptr %12, align 8, !tbaa !47
  %176 = load i64, ptr %20, align 8, !tbaa !46
  %177 = getelementptr inbounds double, ptr %175, i64 %176
  %178 = load double, ptr %177, align 8, !tbaa !22
  %179 = fadd double %174, %178
  %180 = load ptr, ptr %13, align 8, !tbaa !47
  %181 = load i64, ptr %20, align 8, !tbaa !46
  %182 = getelementptr inbounds double, ptr %180, i64 %181
  store double %179, ptr %182, align 8, !tbaa !22
  br label %183

183:                                              ; preds = %108
  %184 = load i64, ptr %20, align 8, !tbaa !46
  %185 = add nsw i64 %184, 1
  store i64 %185, ptr %20, align 8, !tbaa !46
  br label %105

186:                                              ; preds = %105
  br label %187

187:                                              ; preds = %186
  %188 = load i64, ptr %18, align 8, !tbaa !46
  %189 = add nsw i64 %188, 1
  store i64 %189, ptr %18, align 8, !tbaa !46
  br label %49

190:                                              ; preds = %49
  br label %191

191:                                              ; preds = %190
  %192 = load i64, ptr %19, align 8, !tbaa !46
  %193 = add nsw i64 %192, 1
  store i64 %193, ptr %19, align 8, !tbaa !46
  br label %33

194:                                              ; preds = %33
  call void @llvm.lifetime.end.p0(i64 8, ptr %25) #6
  call void @llvm.lifetime.end.p0(i64 8, ptr %24) #6
  call void @llvm.lifetime.end.p0(i64 8, ptr %23) #6
  call void @llvm.lifetime.end.p0(i64 8, ptr %22) #6
  call void @llvm.lifetime.end.p0(i64 8, ptr %21) #6
  call void @llvm.lifetime.end.p0(i64 8, ptr %20) #6
  call void @llvm.lifetime.end.p0(i64 8, ptr %19) #6
  call void @llvm.lifetime.end.p0(i64 8, ptr %18) #6
  call void @llvm.lifetime.end.p0(i64 8, ptr %17) #6
  call void @llvm.lifetime.end.p0(i64 8, ptr %16) #6
  call void @llvm.lifetime.end.p0(i64 8, ptr %15) #6
  call void @llvm.lifetime.end.p0(i64 8, ptr %14) #6
  call void @llvm.lifetime.end.p0(i64 8, ptr %13) #6
  call void @llvm.lifetime.end.p0(i64 8, ptr %12) #6
  call void @llvm.lifetime.end.p0(i64 8, ptr %11) #6
  call void @llvm.lifetime.end.p0(i64 8, ptr %10) #6
  call void @llvm.lifetime.end.p0(i64 8, ptr %9) #6
  call void @llvm.lifetime.end.p0(i64 8, ptr %8) #6
  call void @llvm.lifetime.end.p0(i64 8, ptr %7) #6
  ret i32 0
}