; Function Attrs: nofree norecurse nosync nounwind memory(readwrite, inaccessiblemem: none) uwtable
define internal noundef i32 @func(ptr noundef readonly captures(none) %0, ptr noundef readonly captures(none) %1, ptr noundef readonly captures(none) %2) #3 {
  %4 = getelementptr inbounds nuw i8, ptr %2, i64 1080
  %5 = load double, ptr %4, align 8, !tbaa !28
  %6 = getelementptr inbounds nuw i8, ptr %2, i64 1088
  %7 = load double, ptr %6, align 8, !tbaa !29
  %8 = load ptr, ptr %0, align 8, !tbaa !38
  %9 = getelementptr inbounds nuw i8, ptr %8, i64 16
  %10 = load ptr, ptr %9, align 8, !tbaa !41
  %11 = getelementptr inbounds nuw i8, ptr %2, i64 1040
  %12 = load ptr, ptr %11, align 8, !tbaa !36
  %13 = load ptr, ptr %12, align 8, !tbaa !38
  %14 = getelementptr inbounds nuw i8, ptr %13, i64 16
  %15 = load ptr, ptr %14, align 8, !tbaa !41
  %16 = load ptr, ptr %1, align 8, !tbaa !38
  %17 = getelementptr inbounds nuw i8, ptr %16, i64 16
  %18 = load ptr, ptr %17, align 8, !tbaa !41
  %19 = getelementptr inbounds nuw i8, ptr %2, i64 1024
  %20 = load ptr, ptr %19, align 8, !tbaa !13
  %21 = getelementptr inbounds nuw i8, ptr %2, i64 1032
  %22 = load ptr, ptr %21, align 8, !tbaa !19
  %23 = getelementptr inbounds nuw i8, ptr %2, i64 1056
  %24 = load ptr, ptr %23, align 8, !tbaa !21
  %25 = getelementptr inbounds nuw i8, ptr %2, i64 1048
  %26 = load ptr, ptr %25, align 8, !tbaa !20
  br label %27

27:                                               ; preds = %3, %98
  %.06270 = phi i64 [ 0, %3 ], [ %99, %98 ]
  %28 = uitofp nneg i64 %.06270 to double
  %29 = fmul double %7, %28
  %.not = icmp eq i64 %.06270, 0
  %.neg = select i1 %.not, i64 48, i64 -48
  %.not64 = icmp eq i64 %.06270, 7
  %30 = select i1 %.not64, i64 -48, i64 48
  %31 = mul nuw nsw i64 %.06270, 48
  br label %32

32:                                               ; preds = %27, %96
  %.069 = phi i64 [ 0, %27 ], [ %97, %96 ]
  %33 = uitofp nneg i64 %.069 to double
  %.not65 = icmp eq i64 %.069, 0
  %.not66 = icmp eq i64 %.069, 7
  %34 = mul nuw nsw i64 %.069, 6
  %35 = add nuw nsw i64 %34, %31
  %36 = getelementptr inbounds nuw double, ptr %10, i64 %35
  %37 = getelementptr inbounds nuw double, ptr %15, i64 %35
  br label %38

38:                                               ; preds = %DotProd.exit.i, %32
  %.020.i = phi i64 [ 0, %32 ], [ %49, %DotProd.exit.i ]
  %39 = getelementptr inbounds nuw ptr, ptr %20, i64 %.020.i
  %40 = load ptr, ptr %39, align 8, !tbaa !32
  br label %41

41:                                               ; preds = %41, %38
  %.014.i.i = phi double [ 0.000000e+00, %38 ], [ %46, %41 ]
  %.0813.i.i = phi ptr [ %40, %38 ], [ %44, %41 ]
  %.0912.i.i = phi ptr [ %36, %38 ], [ %42, %41 ]
  %.01011.i.i = phi i64 [ 0, %38 ], [ %47, %41 ]
  %42 = getelementptr inbounds nuw i8, ptr %.0912.i.i, i64 8
  %43 = load double, ptr %.0912.i.i, align 8, !tbaa !33
  %44 = getelementptr inbounds nuw i8, ptr %.0813.i.i, i64 8
  %45 = load double, ptr %.0813.i.i, align 8, !tbaa !33
  %46 = tail call double @llvm.fmuladd.f64(double %43, double %45, double %.014.i.i)
  %47 = add nuw nsw i64 %.01011.i.i, 1
  %exitcond.not.i.i = icmp eq i64 %47, 6
  br i1 %exitcond.not.i.i, label %DotProd.exit.i, label %41

DotProd.exit.i:                                   ; preds = %41
  %48 = getelementptr inbounds nuw double, ptr %37, i64 %.020.i
  store double %46, ptr %48, align 8, !tbaa !33
  %49 = add nuw nsw i64 %.020.i, 1
  %exitcond.not.i = icmp eq i64 %49, 6
  br i1 %exitcond.not.i, label %50, label %38

50:                                               ; preds = %DotProd.exit.i
  %51 = fmul double %5, %33
  %52 = select i1 %.not66, i64 -6, i64 6
  %53 = tail call double @llvm.fmuladd.f64(double %51, double %29, double 1.000000e+00)
  br label %54

54:                                               ; preds = %54, %50
  %.121.i = phi i64 [ 0, %50 ], [ %63, %54 ]
  %55 = getelementptr inbounds nuw double, ptr %36, i64 %.121.i
  %56 = load double, ptr %55, align 8, !tbaa !33
  %57 = getelementptr inbounds nuw double, ptr %22, i64 %.121.i
  %58 = load double, ptr %57, align 8, !tbaa !33
  %59 = getelementptr inbounds nuw double, ptr %37, i64 %.121.i
  %60 = load double, ptr %59, align 8, !tbaa !33
  %61 = tail call double @llvm.fmuladd.f64(double %58, double %53, double %60)
  %62 = fmul double %56, %61
  store double %62, ptr %59, align 8, !tbaa !33
  %63 = add nuw nsw i64 %.121.i, 1
  %exitcond22.not.i = icmp eq i64 %63, 6
  br i1 %exitcond22.not.i, label %WebRate.exit.preheader, label %54

WebRate.exit.preheader:                           ; preds = %54
  %.neg67 = select i1 %.not65, i64 6, i64 -6
  %64 = getelementptr inbounds nuw double, ptr %18, i64 %35
  %65 = getelementptr inbounds double, ptr %36, i64 %.neg
  %66 = getelementptr inbounds double, ptr %36, i64 %30
  %67 = getelementptr inbounds double, ptr %36, i64 %.neg67
  %68 = getelementptr inbounds double, ptr %36, i64 %52
  br label %WebRate.exit

WebRate.exit:                                     ; preds = %WebRate.exit.preheader, %WebRate.exit
  %.06368 = phi i64 [ 0, %WebRate.exit.preheader ], [ %95, %WebRate.exit ]
  %69 = getelementptr inbounds nuw double, ptr %36, i64 %.06368
  %70 = load double, ptr %69, align 8, !tbaa !33
  %71 = getelementptr inbounds nuw double, ptr %65, i64 %.06368
  %72 = load double, ptr %71, align 8, !tbaa !33
  %73 = fsub double %70, %72
  %74 = getelementptr inbounds nuw double, ptr %66, i64 %.06368
  %75 = load double, ptr %74, align 8, !tbaa !33
  %76 = fsub double %75, %70
  %77 = getelementptr inbounds nuw double, ptr %67, i64 %.06368
  %78 = load double, ptr %77, align 8, !tbaa !33
  %79 = fsub double %70, %78
  %80 = getelementptr inbounds nuw double, ptr %68, i64 %.06368
  %81 = load double, ptr %80, align 8, !tbaa !33
  %82 = fsub double %81, %70
  %83 = getelementptr inbounds nuw double, ptr %24, i64 %.06368
  %84 = load double, ptr %83, align 8, !tbaa !33
  %85 = fsub double %76, %73
  %86 = getelementptr inbounds nuw double, ptr %26, i64 %.06368
  %87 = load double, ptr %86, align 8, !tbaa !33
  %88 = fsub double %82, %79
  %89 = fmul double %88, %87
  %90 = tail call double @llvm.fmuladd.f64(double %84, double %85, double %89)
  %91 = getelementptr inbounds nuw double, ptr %37, i64 %.06368
  %92 = load double, ptr %91, align 8, !tbaa !33
  %93 = fadd double %92, %90
  %94 = getelementptr inbounds nuw double, ptr %64, i64 %.06368
  store double %93, ptr %94, align 8, !tbaa !33
  %95 = add nuw nsw i64 %.06368, 1
  %exitcond.not = icmp eq i64 %95, 6
  br i1 %exitcond.not, label %96, label %WebRate.exit

96:                                               ; preds = %WebRate.exit
  %97 = add nuw nsw i64 %.069, 1
  %exitcond71.not = icmp eq i64 %97, 8
  br i1 %exitcond71.not, label %98, label %32

98:                                               ; preds = %96
  %99 = add nuw nsw i64 %.06270, 1
  %exitcond72.not = icmp eq i64 %99, 8
  br i1 %exitcond72.not, label %100, label %27

100:                                              ; preds = %98
  ret i32 0
}